; Function Attrs: inlinehint mustprogress uwtable
define internal void @"_ZN9grpc_core11ChannelArgs5Value3$_48__invokeEPv"(ptr noundef %0) #5 align 2 {
  %2 = atomicrmw sub ptr %0, i64 1 acq_rel, align 8
  %3 = icmp eq i64 %2, 1
  br i1 %3, label %4, label %"_ZNK9grpc_core11ChannelArgs5Value3$_4clEPv.exit"

4:                                                ; preds = %1
  tail call void @_ZN9grpc_core16RefCountedString7DestroyEv(ptr noundef nonnull align 8 dereferenceable(16) %0)
  br label %"_ZNK9grpc_core11ChannelArgs5Value3$_4clEPv.exit"

"_ZNK9grpc_core11ChannelArgs5Value3$_4clEPv.exit": ; preds = %1, %4
  ret void
}